target datalayout = "e-m:e-p270:32:32-p271:32:32-p272:64:64-i64:64-i128:128-f80:128-n8:16:32:64-S128"
target triple = "x86_64-pc-linux-gnu"

%"class.icu_77::EmojiProps" = type { ptr, ptr, [6 x ptr] }
%struct.USetAdder = type { ptr, ptr, ptr, ptr, ptr, ptr }
%"class.icu_77::ConstChar16Ptr" = type { ptr }
%"class.icu_77::UCharsTrie::Iterator" = type { ptr, ptr, ptr, i32, i32, i8, %"class.icu_77::UnicodeString", i32, i32, ptr }
%"class.icu_77::UnicodeString" = type { %"class.icu_77::Replaceable", %"union.icu_77::UnicodeString::StackBufferOrFields" }
%"class.icu_77::Replaceable" = type { %"class.icu_77::UObject" }
%"class.icu_77::UObject" = type { ptr }
%"union.icu_77::UnicodeString::StackBufferOrFields" = type { %struct.anon.0, [32 x i8] }
%struct.anon.0 = type { i16, i32, i32, ptr }
%struct.anon = type { i16, [27 x i16] }

; Function Attrs: inlinehint mustprogress nounwind uwtable
define linkonce_odr noundef i32 @_ZNK6icu_7713UnicodeString14getShortLengthEv(ptr noundef nonnull align 8 dereferenceable(64) %0) #4 comdat align 2 {
  %2 = alloca ptr, align 8
  store ptr %0, ptr %2, align 8, !tbaa !70
  %3 = load ptr, ptr %2, align 8
  %4 = getelementptr inbounds nuw %"class.icu_77::UnicodeString", ptr %3, i32 0, i32 1
  %5 = getelementptr inbounds nuw %struct.anon.0, ptr %4, i32 0, i32 0
  %6 = load i16, ptr %5, align 8, !tbaa !27
  %7 = sext i16 %6 to i32
  %8 = ashr i32 %7, 5
  ret i32 %8
}

; Function Attrs: inlinehint mustprogress nounwind uwtable
define linkonce_odr noundef signext i8 @_ZNK6icu_7713UnicodeString14hasShortLengthEv(ptr noundef nonnull align 8 dereferenceable(64) %0) #4 comdat align 2 {
  %2 = alloca ptr, align 8
  store ptr %0, ptr %2, align 8, !tbaa !70
  %3 = load ptr, ptr %2, align 8
  %4 = getelementptr inbounds nuw %"class.icu_77::UnicodeString", ptr %3, i32 0, i32 1
  %5 = getelementptr inbounds nuw %struct.anon.0, ptr %4, i32 0, i32 0
  %6 = load i16, ptr %5, align 8, !tbaa !27
  %7 = sext i16 %6 to i32
  %8 = icmp sge i32 %7, 0
  %9 = zext i1 %8 to i8
  ret i8 %9
}

; Function Attrs: inlinehint mustprogress uwtable
define linkonce_odr noundef i32 @_ZNK6icu_7713UnicodeString6lengthEv(ptr noundef nonnull align 8 dereferenceable(64) %0) #5 comdat align 2 {
  %2 = alloca ptr, align 8
  store ptr %0, ptr %2, align 8, !tbaa !70
  %3 = load ptr, ptr %2, align 8
  %4 = call noundef signext i8 @_ZNK6icu_7713UnicodeString14hasShortLengthEv(ptr noundef nonnull align 8 dereferenceable(64) %3)
  %5 = icmp ne i8 %4, 0
  br i1 %5, label %6, label %8

6:                                                ; preds = %1
  %7 = call noundef i32 @_ZNK6icu_7713UnicodeString14getShortLengthEv(ptr noundef nonnull align 8 dereferenceable(64) %3)
  br label %12

8:                                                ; preds = %1
  %9 = getelementptr inbounds nuw %"class.icu_77::UnicodeString", ptr %3, i32 0, i32 1
  %10 = getelementptr inbounds nuw %struct.anon.0, ptr %9, i32 0, i32 1
  %11 = load i32, ptr %10, align 4, !tbaa !27
  br label %12

12:                                               ; preds = %8, %6
  %13 = phi i32 [ %7, %6 ], [ %11, %8 ]
  ret i32 %13
}

; Function Attrs: inlinehint mustprogress nounwind uwtable
define linkonce_odr noundef ptr @_ZNK6icu_7713UnicodeString9getBufferEv(ptr noundef nonnull align 8 dereferenceable(64) %0) #4 comdat align 2 {
  %2 = alloca ptr, align 8
  %3 = alloca ptr, align 8
  store ptr %0, ptr %3, align 8, !tbaa !70
  %4 = load ptr, ptr %3, align 8
  %5 = getelementptr inbounds nuw %"class.icu_77::UnicodeString", ptr %4, i32 0, i32 1
  %6 = getelementptr inbounds nuw %struct.anon.0, ptr %5, i32 0, i32 0
  %7 = load i16, ptr %6, align 8, !tbaa !27
  %8 = sext i16 %7 to i32
  %9 = and i32 %8, 17
  %10 = icmp ne i32 %9, 0
  br i1 %10, label %11, label %12

11:                                               ; preds = %1
  store ptr null, ptr %2, align 8
  br label %27

12:                                               ; preds = %1
  %13 = getelementptr inbounds nuw %"class.icu_77::UnicodeString", ptr %4, i32 0, i32 1
  %14 = getelementptr inbounds nuw %struct.anon.0, ptr %13, i32 0, i32 0
  %15 = load i16, ptr %14, align 8, !tbaa !27
  %16 = sext i16 %15 to i32
  %17 = and i32 %16, 2
  %18 = icmp ne i32 %17, 0
  br i1 %18, label %19, label %23

19:                                               ; preds = %12
  %20 = getelementptr inbounds nuw %"class.icu_77::UnicodeString", ptr %4, i32 0, i32 1
  %21 = getelementptr inbounds nuw %struct.anon, ptr %20, i32 0, i32 1
  %22 = getelementptr inbounds [27 x i16], ptr %21, i64 0, i64 0
  store ptr %22, ptr %2, align 8
  br label %27

23:                                               ; preds = %12
  %24 = getelementptr inbounds nuw %"class.icu_77::UnicodeString", ptr %4, i32 0, i32 1
  %25 = getelementptr inbounds nuw %struct.anon.0, ptr %24, i32 0, i32 3
  %26 = load ptr, ptr %25, align 8, !tbaa !27
  store ptr %26, ptr %2, align 8
  br label %27

27:                                               ; preds = %23, %19, %11
  %28 = load ptr, ptr %2, align 8
  ret ptr %28
}

; Function Attrs: mustprogress nounwind uwtable
define linkonce_odr noundef nonnull align 8 dereferenceable(64) ptr @_ZNK6icu_7710UCharsTrie8Iterator9getStringEv(ptr noundef nonnull align 8 dereferenceable(120) %0) #0 comdat align 2 {
  %2 = alloca ptr, align 8
  store ptr %0, ptr %2, align 8, !tbaa !75
  %3 = load ptr, ptr %2, align 8
  %4 = getelementptr inbounds nuw %"class.icu_77::UCharsTrie::Iterator", ptr %3, i32 0, i32 6
  ret ptr %4
}

; Function Attrs: inlinehint mustprogress nounwind uwtable
define linkonce_odr void @_ZN6icu_7714ConstChar16PtrD2Ev(ptr noundef nonnull align 8 dereferenceable(8) %0) unnamed_addr #4 comdat align 2 {
  %2 = alloca ptr, align 8
  store ptr %0, ptr %2, align 8, !tbaa !58
  %3 = load ptr, ptr %2, align 8
  %4 = getelementptr inbounds nuw %"class.icu_77::ConstChar16Ptr", ptr %3, i32 0, i32 0
  %5 = load ptr, ptr %4, align 8, !tbaa !60
  call void asm sideeffect "", "rm,~{memory},~{dirflag},~{fpsr},~{flags}"(ptr %5) #11, !srcloc !69
  ret void
}

; Function Attrs: inlinehint mustprogress nounwind uwtable
define linkonce_odr void @_ZN6icu_7714ConstChar16PtrC2EPKDs(ptr noundef nonnull align 8 dereferenceable(8) %0, ptr noundef %1) unnamed_addr #4 comdat align 2 {
  %3 = alloca ptr, align 8
  %4 = alloca ptr, align 8
  store ptr %0, ptr %3, align 8, !tbaa !58
  store ptr %1, ptr %4, align 8, !tbaa !25
  %5 = load ptr, ptr %3, align 8
  %6 = getelementptr inbounds nuw %"class.icu_77::ConstChar16Ptr", ptr %5, i32 0, i32 0
  %7 = load ptr, ptr %4, align 8, !tbaa !25
  store ptr %7, ptr %6, align 8, !tbaa !60
  ret void
}

; Function Attrs: inlinehint mustprogress nounwind uwtable
define internal noundef signext i8 @_ZL9U_FAILURE10UErrorCode(i32 noundef %0) #4 {
  %2 = alloca i32, align 4
  store i32 %0, ptr %2, align 4, !tbaa !14
  %3 = load i32, ptr %2, align 4, !tbaa !14
  %4 = icmp sgt i32 %3, 0
  %5 = zext i1 %4 to i8
  ret i8 %5
}

; Function Attrs: mustprogress uwtable
define void @_ZNK6icu_7710EmojiProps10addStringsEPK9USetAdder9UPropertyR10UErrorCode(ptr noundef nonnull align 8 dereferenceable(64) %0, ptr noundef %1, i32 noundef %2, ptr noundef nonnull align 4 dereferenceable(4) %3) #3 align 2 personality ptr @__gxx_personality_v0 {
  %5 = alloca ptr, align 8
  %6 = alloca ptr, align 8
  %7 = alloca i32, align 4
  %8 = alloca ptr, align 8
  %9 = alloca i32, align 4
  %10 = alloca i32, align 4
  %11 = alloca i32, align 4
  %12 = alloca ptr, align 8
  %13 = alloca %"class.icu_77::UCharsTrie::Iterator", align 8
  %14 = alloca %"class.icu_77::ConstChar16Ptr", align 8
  %15 = alloca ptr, align 8
  %16 = alloca i32, align 4
  %17 = alloca ptr, align 8
  store ptr %0, ptr %5, align 8, !tbaa !3
  store ptr %1, ptr %6, align 8, !tbaa !40
  store i32 %2, ptr %7, align 4, !tbaa !47
  store ptr %3, ptr %8, align 8, !tbaa !13
  %18 = load ptr, ptr %5, align 8
  %19 = load ptr, ptr %8, align 8, !tbaa !13
  %20 = load i32, ptr %19, align 4, !tbaa !14
  %21 = call noundef signext i8 @_ZL9U_FAILURE10UErrorCode(i32 noundef %20)
  %22 = icmp ne i8 %21, 0
  br i1 %22, label %23, label %24

23:                                               ; preds = %4
  br label %98

24:                                               ; preds = %4
  %25 = load i32, ptr %7, align 4, !tbaa !47
  %26 = icmp slt i32 %25, 65
  br i1 %26, label %30, label %27

27:                                               ; preds = %24
  %28 = load i32, ptr %7, align 4, !tbaa !47
  %29 = icmp slt i32 71, %28
  br i1 %29, label %30, label %31

30:                                               ; preds = %27, %24
  br label %98

31:                                               ; preds = %27
  call void @llvm.lifetime.start.p0(i64 4, ptr %9) #11
  %32 = load i32, ptr %7, align 4, !tbaa !47
  store i32 %32, ptr %9, align 4, !tbaa !47
  call void @llvm.lifetime.start.p0(i64 4, ptr %10) #11
  %33 = load i32, ptr %7, align 4, !tbaa !47
  store i32 %33, ptr %10, align 4, !tbaa !47
  %34 = load i32, ptr %7, align 4, !tbaa !47
  %35 = icmp eq i32 %34, 71
  br i1 %35, label %36, label %37

36:                                               ; preds = %31
  store i32 65, ptr %9, align 4, !tbaa !47
  store i32 70, ptr %10, align 4, !tbaa !47
  br label %37

37:                                               ; preds = %36, %31
  call void @llvm.lifetime.start.p0(i64 4, ptr %11) #11
  %38 = load i32, ptr %9, align 4, !tbaa !47
  store i32 %38, ptr %11, align 4, !tbaa !37
  br label %39

39:                                               ; preds = %94, %37
  %40 = load i32, ptr %11, align 4, !tbaa !37
  %41 = load i32, ptr %10, align 4, !tbaa !47
  %42 = icmp sle i32 %40, %41
  br i1 %42, label %44, label %43

43:                                               ; preds = %39
  call void @llvm.lifetime.end.p0(i64 4, ptr %11) #11
  br label %97

44:                                               ; preds = %39
  call void @llvm.lifetime.start.p0(i64 8, ptr %12) #11
  %45 = getelementptr inbounds nuw %"class.icu_77::EmojiProps", ptr %18, i32 0, i32 2
  %46 = load i32, ptr %11, align 4, !tbaa !37
  %47 = sub nsw i32 %46, 65
  %48 = sext i32 %47 to i64
  %49 = getelementptr inbounds [6 x ptr], ptr %45, i64 0, i64 %48
  %50 = load ptr, ptr %49, align 8, !tbaa !25
  store ptr %50, ptr %12, align 8, !tbaa !25
  %51 = load ptr, ptr %12, align 8, !tbaa !25
  %52 = icmp ne ptr %51, null
  br i1 %52, label %53, label %93

53:                                               ; preds = %44
  call void @llvm.lifetime.start.p0(i64 120, ptr %13) #11
  %54 = load ptr, ptr %12, align 8, !tbaa !25
  call void @_ZN6icu_7714ConstChar16PtrC2EPKDs(ptr noundef nonnull align 8 dereferenceable(8) %14, ptr noundef %54)
  %55 = load ptr, ptr %8, align 8, !tbaa !13
  invoke void @_ZN6icu_7710UCharsTrie8IteratorC1ENS_14ConstChar16PtrEiR10UErrorCode(ptr noundef nonnull align 8 dereferenceable(120) %13, ptr noundef %14, i32 noundef 0, ptr noundef nonnull align 4 dereferenceable(4) %55)
          to label %56 unwind label %78

56:                                               ; preds = %53
  call void @_ZN6icu_7714ConstChar16PtrD2Ev(ptr noundef nonnull align 8 dereferenceable(8) %14) #11
  br label %57

57:                                               ; preds = %77, %56
  %58 = load ptr, ptr %8, align 8, !tbaa !13
  %59 = invoke noundef signext i8 @_ZN6icu_7710UCharsTrie8Iterator4nextER10UErrorCode(ptr noundef nonnull align 8 dereferenceable(120) %13, ptr noundef nonnull align 4 dereferenceable(4) %58)
          to label %60 unwind label %82

60:                                               ; preds = %57
  %61 = icmp ne i8 %59, 0
  br i1 %61, label %62, label %90

62:                                               ; preds = %60
  call void @llvm.lifetime.start.p0(i64 8, ptr %17) #11
  %63 = invoke noundef nonnull align 8 dereferenceable(64) ptr @_ZNK6icu_7710UCharsTrie8Iterator9getStringEv(ptr noundef nonnull align 8 dereferenceable(120) %13)
          to label %64 unwind label %86

64:                                               ; preds = %62
  store ptr %63, ptr %17, align 8, !tbaa !70
  %65 = load ptr, ptr %6, align 8, !tbaa !40
  %66 = getelementptr inbounds nuw %struct.USetAdder, ptr %65, i32 0, i32 3
  %67 = load ptr, ptr %66, align 8, !tbaa !72
  %68 = load ptr, ptr %6, align 8, !tbaa !40
  %69 = getelementptr inbounds nuw %struct.USetAdder, ptr %68, i32 0, i32 0
  %70 = load ptr, ptr %69, align 8, !tbaa !45
  %71 = load ptr, ptr %17, align 8, !tbaa !70
  %72 = invoke noundef ptr @_ZNK6icu_7713UnicodeString9getBufferEv(ptr noundef nonnull align 8 dereferenceable(64) %71)
          to label %73 unwind label %86

73:                                               ; preds = %64
  %74 = load ptr, ptr %17, align 8, !tbaa !70
  %75 = invoke noundef i32 @_ZNK6icu_7713UnicodeString6lengthEv(ptr noundef nonnull align 8 dereferenceable(64) %74)
          to label %76 unwind label %86

76:                                               ; preds = %73
  invoke void %67(ptr noundef %70, ptr noundef %72, i32 noundef %75)
          to label %77 unwind label %86

77:                                               ; preds = %76
  call void @llvm.lifetime.end.p0(i64 8, ptr %17) #11
  br label %57, !llvm.loop !73

78:                                               ; preds = %53
  %79 = landingpad { ptr, i32 }
          cleanup
  %80 = extractvalue { ptr, i32 } %79, 0
  store ptr %80, ptr %15, align 8
  %81 = extractvalue { ptr, i32 } %79, 1
  store i32 %81, ptr %16, align 4
  call void @_ZN6icu_7714ConstChar16PtrD2Ev(ptr noundef nonnull align 8 dereferenceable(8) %14) #11
  br label %92

82:                                               ; preds = %57
  %83 = landingpad { ptr, i32 }
          cleanup
  %84 = extractvalue { ptr, i32 } %83, 0
  store ptr %84, ptr %15, align 8
  %85 = extractvalue { ptr, i32 } %83, 1
  store i32 %85, ptr %16, align 4
  br label %91

86:                                               ; preds = %76, %73, %64, %62
  %87 = landingpad { ptr, i32 }
          cleanup
  %88 = extractvalue { ptr, i32 } %87, 0
  store ptr %88, ptr %15, align 8
  %89 = extractvalue { ptr, i32 } %87, 1
  store i32 %89, ptr %16, align 4
  call void @llvm.lifetime.end.p0(i64 8, ptr %17) #11
  br label %91

90:                                               ; preds = %60
  call void @_ZN6icu_7710UCharsTrie8IteratorD1Ev(ptr noundef nonnull align 8 dereferenceable(120) %13) #11
  call void @llvm.lifetime.end.p0(i64 120, ptr %13) #11
  br label %93

91:                                               ; preds = %86, %82
  call void @_ZN6icu_7710UCharsTrie8IteratorD1Ev(ptr noundef nonnull align 8 dereferenceable(120) %13) #11
  br label %92

92:                                               ; preds = %91, %78
  call void @llvm.lifetime.end.p0(i64 120, ptr %13) #11
  call void @llvm.lifetime.end.p0(i64 8, ptr %12) #11
  call void @llvm.lifetime.end.p0(i64 4, ptr %11) #11
  call void @llvm.lifetime.end.p0(i64 4, ptr %10) #11
  call void @llvm.lifetime.end.p0(i64 4, ptr %9) #11
  br label %99

93:                                               ; preds = %90, %44
  call void @llvm.lifetime.end.p0(i64 8, ptr %12) #11
  br label %94

94:                                               ; preds = %93
  %95 = load i32, ptr %11, align 4, !tbaa !37
  %96 = add nsw i32 %95, 1
  store i32 %96, ptr %11, align 4, !tbaa !37
  br label %39, !llvm.loop !74

97:                                               ; preds = %43
  call void @llvm.lifetime.end.p0(i64 4, ptr %10) #11
  call void @llvm.lifetime.end.p0(i64 4, ptr %9) #11
  br label %98

98:                                               ; preds = %97, %30, %23
  ret void

99:                                               ; preds = %92
  %100 = load ptr, ptr %15, align 8
  %101 = load i32, ptr %16, align 4
  %102 = insertvalue { ptr, i32 } poison, ptr %100, 0
  %103 = insertvalue { ptr, i32 } %102, i32 %101, 1
  resume { ptr, i32 } %103
}