; Function Attrs: mustprogress uwtable
define void @_ZNK6icu_7710EmojiProps10addStringsEPK9USetAdder9UPropertyR10UErrorCode(ptr noundef nonnull readonly align 8 captures(none) dereferenceable(64) %0, ptr noundef readonly captures(none) %1, i32 noundef %2, ptr noundef nonnull align 4 dereferenceable(4) %3) local_unnamed_addr #4 align 2 personality ptr @__gxx_personality_v0 {
  %5 = alloca %"class.icu_77::UCharsTrie::Iterator", align 8
  %6 = alloca %"class.icu_77::ConstChar16Ptr", align 8
  %7 = load i32, ptr %3, align 4, !tbaa !11
  %8 = icmp sgt i32 %7, 0
  %9 = add i32 %2, -72
  %or.cond = icmp ult i32 %9, -7
  %or.cond34 = or i1 %or.cond, %8
  br i1 %or.cond34, label %.loopexit, label %10

10:                                               ; preds = %4
  %11 = icmp eq i32 %2, 71
  %spec.select = select i1 %11, i32 70, i32 %2
  %spec.select35 = select i1 %11, i32 65, i32 %2
  %.not2936 = icmp samesign ugt i32 %spec.select35, %spec.select
  br i1 %.not2936, label %.loopexit, label %.lr.ph

.lr.ph:                                           ; preds = %10
  %12 = getelementptr inbounds nuw i8, ptr %0, i64 16
  %13 = getelementptr inbounds nuw i8, ptr %1, i64 24
  %14 = getelementptr inbounds nuw i8, ptr %5, i64 48
  %15 = getelementptr inbounds nuw i8, ptr %5, i64 50
  %16 = getelementptr inbounds nuw i8, ptr %5, i64 64
  %17 = getelementptr inbounds nuw i8, ptr %5, i64 52
  %18 = zext nneg i32 %spec.select35 to i64
  br label %19

19:                                               ; preds = %.lr.ph, %53
  %indvars.iv = phi i64 [ %18, %.lr.ph ], [ %indvars.iv.next, %53 ]
  %20 = trunc nuw i64 %indvars.iv to i32
  %21 = add nuw i64 %indvars.iv, 4294967231
  %22 = and i64 %21, 4294967295
  %23 = getelementptr inbounds nuw [6 x ptr], ptr %12, i64 0, i64 %22
  %24 = load ptr, ptr %23, align 8, !tbaa !15
  %.not30 = icmp eq ptr %24, null
  br i1 %.not30, label %53, label %25

25:                                               ; preds = %19
  call void @llvm.lifetime.start.p0(i64 120, ptr nonnull %5) #10
  store ptr %24, ptr %6, align 8, !tbaa !48
  invoke void @_ZN6icu_7710UCharsTrie8IteratorC1ENS_14ConstChar16PtrEiR10UErrorCode(ptr noundef nonnull align 8 dereferenceable(120) %5, ptr noundef nonnull %6, i32 noundef 0, ptr noundef nonnull align 4 dereferenceable(4) %3)
          to label %26 unwind label %43

26:                                               ; preds = %25
  %27 = load ptr, ptr %6, align 8, !tbaa !48
  call void asm sideeffect "", "rm,~{memory},~{dirflag},~{fpsr},~{flags}"(ptr %27) #10, !srcloc !47
  br label %28

28:                                               ; preds = %31, %26
  %29 = invoke noundef signext i8 @_ZN6icu_7710UCharsTrie8Iterator4nextER10UErrorCode(ptr noundef nonnull align 8 dereferenceable(120) %5, ptr noundef nonnull align 4 dereferenceable(4) %3)
          to label %30 unwind label %46

30:                                               ; preds = %28
  %.not31 = icmp eq i8 %29, 0
  br i1 %.not31, label %50, label %31

31:                                               ; preds = %30
  %32 = load ptr, ptr %13, align 8, !tbaa !51
  %33 = load ptr, ptr %1, align 8, !tbaa !31
  %34 = load i16, ptr %14, align 8, !tbaa !33
  %35 = and i16 %34, 17
  %.not.i = icmp eq i16 %35, 0
  %36 = and i16 %34, 2
  %.not2.i = icmp eq i16 %36, 0
  %37 = load ptr, ptr %16, align 8
  %spec.select38 = select i1 %.not2.i, ptr %37, ptr %15
  %.0.i = select i1 %.not.i, ptr %spec.select38, ptr null
  %38 = icmp slt i16 %34, 0
  %39 = ashr i16 %34, 5
  %40 = sext i16 %39 to i32
  %41 = load i32, ptr %17, align 4
  %42 = select i1 %38, i32 %41, i32 %40
  invoke void %32(ptr noundef %33, ptr noundef %.0.i, i32 noundef %42)
          to label %28 unwind label %48, !llvm.loop !52

43:                                               ; preds = %25
  %44 = landingpad { ptr, i32 }
          cleanup
  %45 = load ptr, ptr %6, align 8, !tbaa !48
  call void asm sideeffect "", "rm,~{memory},~{dirflag},~{fpsr},~{flags}"(ptr %45) #10, !srcloc !47
  br label %52

46:                                               ; preds = %28
  %47 = landingpad { ptr, i32 }
          cleanup
  br label %51

48:                                               ; preds = %31
  %49 = landingpad { ptr, i32 }
          cleanup
  br label %51

50:                                               ; preds = %30
  call void @_ZN6icu_7710UCharsTrie8IteratorD1Ev(ptr noundef nonnull align 8 dereferenceable(120) %5) #10
  call void @llvm.lifetime.end.p0(i64 120, ptr nonnull %5) #10
  br label %53

51:                                               ; preds = %48, %46
  %.pn = phi { ptr, i32 } [ %49, %48 ], [ %47, %46 ]
  call void @_ZN6icu_7710UCharsTrie8IteratorD1Ev(ptr noundef nonnull align 8 dereferenceable(120) %5) #10
  br label %52

52:                                               ; preds = %51, %43
  %.pn.pn = phi { ptr, i32 } [ %.pn, %51 ], [ %44, %43 ]
  call void @llvm.lifetime.end.p0(i64 120, ptr nonnull %5) #10
  resume { ptr, i32 } %.pn.pn

53:                                               ; preds = %50, %19
  %indvars.iv.next = add nuw nsw i64 %indvars.iv, 1
  %.not29.not = icmp sgt i32 %spec.select, %20
  br i1 %.not29.not, label %19, label %.loopexit, !llvm.loop !53

.loopexit:                                        ; preds = %53, %10, %4
  ret void
}